target datalayout = "e-m:e-p270:32:32-p271:32:32-p272:64:64-i64:64-i128:128-f80:128-n8:16:32:64-S128"
target triple = "x86_64-pc-linux-gnu"

%struct.PJconsts = type { ptr, ptr, ptr, ptr, ptr, ptr, ptr, ptr, ptr, ptr, ptr, ptr, i32, ptr, ptr, ptr, ptr, ptr, ptr, ptr, ptr, double, double, double, double, double, double, double, double, double, double, double, double, double, double, double, double, double, double, double, double, double, double, i32, i32, i32, i32, i32, i32, i32, i32, i32, i32, i32, ptr, ptr, ptr, ptr, ptr, ptr, double, double, double, double, double, double, double, double, double, double, double, i32, [7 x double], i32, ptr, ptr, double, double, i32, [4 x i8], %"class.std::shared_ptr", i8, double, i8, %"class.std::__cxx11::basic_string", %"class.std::__cxx11::basic_string", %"class.std::__cxx11::basic_string", i8, %"class.std::vector", i32, %"class.std::vector.3", i32, i8, i8, i8, ptr }
%"class.std::shared_ptr" = type { %"class.std::__shared_ptr" }
%"class.std::__shared_ptr" = type { ptr, %"class.std::__shared_count" }
%"class.std::__shared_count" = type { ptr }
%"class.std::__cxx11::basic_string" = type { %"struct.std::__cxx11::basic_string<char>::_Alloc_hider", i64, %union.anon }
%"struct.std::__cxx11::basic_string<char>::_Alloc_hider" = type { ptr }
%union.anon = type { i64, [8 x i8] }
%"class.std::vector" = type { %"struct.std::_Vector_base" }
%"struct.std::_Vector_base" = type { %"struct.std::_Vector_base<osgeo::proj::operation::GridDescription, std::allocator<osgeo::proj::operation::GridDescription>>::_Vector_impl" }
%"struct.std::_Vector_base<osgeo::proj::operation::GridDescription, std::allocator<osgeo::proj::operation::GridDescription>>::_Vector_impl" = type { %"struct.std::_Vector_base<osgeo::proj::operation::GridDescription, std::allocator<osgeo::proj::operation::GridDescription>>::_Vector_impl_data" }
%"struct.std::_Vector_base<osgeo::proj::operation::GridDescription, std::allocator<osgeo::proj::operation::GridDescription>>::_Vector_impl_data" = type { ptr, ptr, ptr }
%"class.std::vector.3" = type { %"struct.std::_Vector_base.4" }
%"struct.std::_Vector_base.4" = type { %"struct.std::_Vector_base<PJCoordOperation, std::allocator<PJCoordOperation>>::_Vector_impl" }
%"struct.std::_Vector_base<PJCoordOperation, std::allocator<PJCoordOperation>>::_Vector_impl" = type { %"struct.std::_Vector_base<PJCoordOperation, std::allocator<PJCoordOperation>>::_Vector_impl_data" }
%"struct.std::_Vector_base<PJCoordOperation, std::allocator<PJCoordOperation>>::_Vector_impl_data" = type { ptr, ptr, ptr }
%"struct.(anonymous namespace)::pj_stere" = type { double, double, double, double, i32 }
%struct.PJ_LP = type { double, double }
%struct.PJ_XY = type { double, double }

; Function Attrs: mustprogress nounwind uwtable
define internal { double, double } @_ZL15stere_s_inverse5PJ_XYP8PJconsts(double %0, double %1, ptr noundef %2) #6 {
  %4 = alloca %struct.PJ_LP, align 8
  %5 = alloca %struct.PJ_XY, align 8
  %6 = alloca ptr, align 8
  %7 = alloca ptr, align 8
  %8 = alloca double, align 8
  %9 = alloca double, align 8
  %10 = alloca double, align 8
  %11 = alloca double, align 8
  %12 = getelementptr inbounds nuw { double, double }, ptr %5, i32 0, i32 0
  store double %0, ptr %12, align 8
  %13 = getelementptr inbounds nuw { double, double }, ptr %5, i32 0, i32 1
  store double %1, ptr %13, align 8
  store ptr %2, ptr %6, align 8, !tbaa !3
  call void @llvm.memset.p0.i64(ptr align 8 %4, i8 0, i64 16, i1 false)
  call void @llvm.lifetime.start.p0(i64 8, ptr %7) #9
  %14 = load ptr, ptr %6, align 8, !tbaa !3
  %15 = getelementptr inbounds nuw %struct.PJconsts, ptr %14, i32 0, i32 11
  %16 = load ptr, ptr %15, align 8, !tbaa !43
  store ptr %16, ptr %7, align 8, !tbaa !41
  call void @llvm.lifetime.start.p0(i64 8, ptr %8) #9
  call void @llvm.lifetime.start.p0(i64 8, ptr %9) #9
  call void @llvm.lifetime.start.p0(i64 8, ptr %10) #9
  call void @llvm.lifetime.start.p0(i64 8, ptr %11) #9
  %17 = getelementptr inbounds nuw %struct.PJ_XY, ptr %5, i32 0, i32 0
  %18 = load double, ptr %17, align 8, !tbaa !64
  %19 = getelementptr inbounds nuw %struct.PJ_XY, ptr %5, i32 0, i32 1
  %20 = load double, ptr %19, align 8, !tbaa !66
  %21 = call double @hypot(double noundef %18, double noundef %20) #9, !tbaa !55
  store double %21, ptr %11, align 8, !tbaa !50
  %22 = load double, ptr %11, align 8, !tbaa !50
  %23 = load ptr, ptr %7, align 8, !tbaa !41
  %24 = getelementptr inbounds nuw %"struct.(anonymous namespace)::pj_stere", ptr %23, i32 0, i32 3
  %25 = load double, ptr %24, align 8, !tbaa !56
  %26 = fdiv double %22, %25
  %27 = call double @atan(double noundef %26) #9, !tbaa !55
  %28 = fmul double 2.000000e+00, %27
  store double %28, ptr %8, align 8, !tbaa !50
  %29 = load double, ptr %8, align 8, !tbaa !50
  %30 = call double @sin(double noundef %29) #9, !tbaa !55
  store double %30, ptr %9, align 8, !tbaa !50
  %31 = load double, ptr %8, align 8, !tbaa !50
  %32 = call double @cos(double noundef %31) #9, !tbaa !55
  store double %32, ptr %10, align 8, !tbaa !50
  %33 = getelementptr inbounds nuw %struct.PJ_LP, ptr %4, i32 0, i32 0
  store double 0.000000e+00, ptr %33, align 8, !tbaa !69
  %34 = load ptr, ptr %7, align 8, !tbaa !41
  %35 = getelementptr inbounds nuw %"struct.(anonymous namespace)::pj_stere", ptr %34, i32 0, i32 4
  %36 = load i32, ptr %35, align 8, !tbaa !51
  switch i32 %36, label %182 [
    i32 3, label %37
    i32 2, label %70
    i32 1, label %136
    i32 0, label %141
  ]

37:                                               ; preds = %3
  %38 = load double, ptr %11, align 8, !tbaa !50
  %39 = call double @llvm.fabs.f64(double %38)
  %40 = fcmp ole double %39, 1.000000e-10
  br i1 %40, label %41, label %43

41:                                               ; preds = %37
  %42 = getelementptr inbounds nuw %struct.PJ_LP, ptr %4, i32 0, i32 1
  store double 0.000000e+00, ptr %42, align 8, !tbaa !67
  br label %52

43:                                               ; preds = %37
  %44 = getelementptr inbounds nuw %struct.PJ_XY, ptr %5, i32 0, i32 1
  %45 = load double, ptr %44, align 8, !tbaa !66
  %46 = load double, ptr %9, align 8, !tbaa !50
  %47 = fmul double %45, %46
  %48 = load double, ptr %11, align 8, !tbaa !50
  %49 = fdiv double %47, %48
  %50 = call double @asin(double noundef %49) #9, !tbaa !55
  %51 = getelementptr inbounds nuw %struct.PJ_LP, ptr %4, i32 0, i32 1
  store double %50, ptr %51, align 8, !tbaa !67
  br label %52

52:                                               ; preds = %43, %41
  %53 = load double, ptr %10, align 8, !tbaa !50
  %54 = fcmp une double %53, 0.000000e+00
  br i1 %54, label %59, label %55

55:                                               ; preds = %52
  %56 = getelementptr inbounds nuw %struct.PJ_XY, ptr %5, i32 0, i32 0
  %57 = load double, ptr %56, align 8, !tbaa !64
  %58 = fcmp une double %57, 0.000000e+00
  br i1 %58, label %59, label %69

59:                                               ; preds = %55, %52
  %60 = getelementptr inbounds nuw %struct.PJ_XY, ptr %5, i32 0, i32 0
  %61 = load double, ptr %60, align 8, !tbaa !64
  %62 = load double, ptr %9, align 8, !tbaa !50
  %63 = fmul double %61, %62
  %64 = load double, ptr %10, align 8, !tbaa !50
  %65 = load double, ptr %11, align 8, !tbaa !50
  %66 = fmul double %64, %65
  %67 = call double @atan2(double noundef %63, double noundef %66) #9, !tbaa !55
  %68 = getelementptr inbounds nuw %struct.PJ_LP, ptr %4, i32 0, i32 0
  store double %67, ptr %68, align 8, !tbaa !69
  br label %69

69:                                               ; preds = %59, %55
  br label %182

70:                                               ; preds = %3
  %71 = load double, ptr %11, align 8, !tbaa !50
  %72 = call double @llvm.fabs.f64(double %71)
  %73 = fcmp ole double %72, 1.000000e-10
  br i1 %73, label %74, label %79

74:                                               ; preds = %70
  %75 = load ptr, ptr %6, align 8, !tbaa !3
  %76 = getelementptr inbounds nuw %struct.PJconsts, ptr %75, i32 0, i32 61
  %77 = load double, ptr %76, align 8, !tbaa !49
  %78 = getelementptr inbounds nuw %struct.PJ_LP, ptr %4, i32 0, i32 1
  store double %77, ptr %78, align 8, !tbaa !67
  br label %101

79:                                               ; preds = %70
  %80 = load double, ptr %10, align 8, !tbaa !50
  %81 = load ptr, ptr %6, align 8, !tbaa !3
  %82 = getelementptr inbounds nuw %struct.PJconsts, ptr %81, i32 0, i32 11
  %83 = load ptr, ptr %82, align 8, !tbaa !43
  %84 = getelementptr inbounds nuw %"struct.(anonymous namespace)::pj_stere", ptr %83, i32 0, i32 1
  %85 = load double, ptr %84, align 8, !tbaa !57
  %86 = getelementptr inbounds nuw %struct.PJ_XY, ptr %5, i32 0, i32 1
  %87 = load double, ptr %86, align 8, !tbaa !66
  %88 = load double, ptr %9, align 8, !tbaa !50
  %89 = fmul double %87, %88
  %90 = load ptr, ptr %6, align 8, !tbaa !3
  %91 = getelementptr inbounds nuw %struct.PJconsts, ptr %90, i32 0, i32 11
  %92 = load ptr, ptr %91, align 8, !tbaa !43
  %93 = getelementptr inbounds nuw %"struct.(anonymous namespace)::pj_stere", ptr %92, i32 0, i32 2
  %94 = load double, ptr %93, align 8, !tbaa !58
  %95 = fmul double %89, %94
  %96 = load double, ptr %11, align 8, !tbaa !50
  %97 = fdiv double %95, %96
  %98 = call double @llvm.fmuladd.f64(double %80, double %85, double %97)
  %99 = call double @asin(double noundef %98) #9, !tbaa !55
  %100 = getelementptr inbounds nuw %struct.PJ_LP, ptr %4, i32 0, i32 1
  store double %99, ptr %100, align 8, !tbaa !67
  br label %101

101:                                              ; preds = %79, %74
  %102 = load double, ptr %10, align 8, !tbaa !50
  %103 = load ptr, ptr %6, align 8, !tbaa !3
  %104 = getelementptr inbounds nuw %struct.PJconsts, ptr %103, i32 0, i32 11
  %105 = load ptr, ptr %104, align 8, !tbaa !43
  %106 = getelementptr inbounds nuw %"struct.(anonymous namespace)::pj_stere", ptr %105, i32 0, i32 1
  %107 = load double, ptr %106, align 8, !tbaa !57
  %108 = getelementptr inbounds nuw %struct.PJ_LP, ptr %4, i32 0, i32 1
  %109 = load double, ptr %108, align 8, !tbaa !67
  %110 = call double @sin(double noundef %109) #9, !tbaa !55
  %111 = fneg double %107
  %112 = call double @llvm.fmuladd.f64(double %111, double %110, double %102)
  store double %112, ptr %8, align 8, !tbaa !50
  %113 = load double, ptr %8, align 8, !tbaa !50
  %114 = fcmp une double %113, 0.000000e+00
  br i1 %114, label %119, label %115

115:                                              ; preds = %101
  %116 = getelementptr inbounds nuw %struct.PJ_XY, ptr %5, i32 0, i32 0
  %117 = load double, ptr %116, align 8, !tbaa !64
  %118 = fcmp une double %117, 0.000000e+00
  br i1 %118, label %119, label %135

119:                                              ; preds = %115, %101
  %120 = getelementptr inbounds nuw %struct.PJ_XY, ptr %5, i32 0, i32 0
  %121 = load double, ptr %120, align 8, !tbaa !64
  %122 = load double, ptr %9, align 8, !tbaa !50
  %123 = fmul double %121, %122
  %124 = load ptr, ptr %6, align 8, !tbaa !3
  %125 = getelementptr inbounds nuw %struct.PJconsts, ptr %124, i32 0, i32 11
  %126 = load ptr, ptr %125, align 8, !tbaa !43
  %127 = getelementptr inbounds nuw %"struct.(anonymous namespace)::pj_stere", ptr %126, i32 0, i32 2
  %128 = load double, ptr %127, align 8, !tbaa !58
  %129 = fmul double %123, %128
  %130 = load double, ptr %8, align 8, !tbaa !50
  %131 = load double, ptr %11, align 8, !tbaa !50
  %132 = fmul double %130, %131
  %133 = call double @atan2(double noundef %129, double noundef %132) #9, !tbaa !55
  %134 = getelementptr inbounds nuw %struct.PJ_LP, ptr %4, i32 0, i32 0
  store double %133, ptr %134, align 8, !tbaa !69
  br label %135

135:                                              ; preds = %119, %115
  br label %182

136:                                              ; preds = %3
  %137 = getelementptr inbounds nuw %struct.PJ_XY, ptr %5, i32 0, i32 1
  %138 = load double, ptr %137, align 8, !tbaa !66
  %139 = fneg double %138
  %140 = getelementptr inbounds nuw %struct.PJ_XY, ptr %5, i32 0, i32 1
  store double %139, ptr %140, align 8, !tbaa !66
  br label %141

141:                                              ; preds = %3, %136
  %142 = load double, ptr %11, align 8, !tbaa !50
  %143 = call double @llvm.fabs.f64(double %142)
  %144 = fcmp ole double %143, 1.000000e-10
  br i1 %144, label %145, label %150

145:                                              ; preds = %141
  %146 = load ptr, ptr %6, align 8, !tbaa !3
  %147 = getelementptr inbounds nuw %struct.PJconsts, ptr %146, i32 0, i32 61
  %148 = load double, ptr %147, align 8, !tbaa !49
  %149 = getelementptr inbounds nuw %struct.PJ_LP, ptr %4, i32 0, i32 1
  store double %148, ptr %149, align 8, !tbaa !67
  br label %164

150:                                              ; preds = %141
  %151 = load ptr, ptr %7, align 8, !tbaa !41
  %152 = getelementptr inbounds nuw %"struct.(anonymous namespace)::pj_stere", ptr %151, i32 0, i32 4
  %153 = load i32, ptr %152, align 8, !tbaa !51
  %154 = icmp eq i32 %153, 0
  br i1 %154, label %155, label %158

155:                                              ; preds = %150
  %156 = load double, ptr %10, align 8, !tbaa !50
  %157 = fneg double %156
  br label %160

158:                                              ; preds = %150
  %159 = load double, ptr %10, align 8, !tbaa !50
  br label %160

160:                                              ; preds = %158, %155
  %161 = phi double [ %157, %155 ], [ %159, %158 ]
  %162 = call double @asin(double noundef %161) #9, !tbaa !55
  %163 = getelementptr inbounds nuw %struct.PJ_LP, ptr %4, i32 0, i32 1
  store double %162, ptr %163, align 8, !tbaa !67
  br label %164

164:                                              ; preds = %160, %145
  %165 = getelementptr inbounds nuw %struct.PJ_XY, ptr %5, i32 0, i32 0
  %166 = load double, ptr %165, align 8, !tbaa !64
  %167 = fcmp oeq double %166, 0.000000e+00
  br i1 %167, label %168, label %173

168:                                              ; preds = %164
  %169 = getelementptr inbounds nuw %struct.PJ_XY, ptr %5, i32 0, i32 1
  %170 = load double, ptr %169, align 8, !tbaa !66
  %171 = fcmp oeq double %170, 0.000000e+00
  br i1 %171, label %172, label %173

172:                                              ; preds = %168
  br label %179

173:                                              ; preds = %168, %164
  %174 = getelementptr inbounds nuw %struct.PJ_XY, ptr %5, i32 0, i32 0
  %175 = load double, ptr %174, align 8, !tbaa !64
  %176 = getelementptr inbounds nuw %struct.PJ_XY, ptr %5, i32 0, i32 1
  %177 = load double, ptr %176, align 8, !tbaa !66
  %178 = call double @atan2(double noundef %175, double noundef %177) #9, !tbaa !55
  br label %179

179:                                              ; preds = %173, %172
  %180 = phi double [ 0.000000e+00, %172 ], [ %178, %173 ]
  %181 = getelementptr inbounds nuw %struct.PJ_LP, ptr %4, i32 0, i32 0
  store double %180, ptr %181, align 8, !tbaa !69
  br label %182

182:                                              ; preds = %3, %179, %135, %69
  call void @llvm.lifetime.end.p0(i64 8, ptr %11) #9
  call void @llvm.lifetime.end.p0(i64 8, ptr %10) #9
  call void @llvm.lifetime.end.p0(i64 8, ptr %9) #9
  call void @llvm.lifetime.end.p0(i64 8, ptr %8) #9
  call void @llvm.lifetime.end.p0(i64 8, ptr %7) #9
  %183 = load { double, double }, ptr %4, align 8
  ret { double, double } %183
}