; Function Attrs: mustprogress nofree nounwind willreturn memory(readwrite, inaccessiblemem: write) uwtable
define internal { double, double } @_ZL15stere_s_inverse5PJ_XYP8PJconsts(double %0, double %1, ptr noundef readonly captures(none) %2) #6 {
  %4 = getelementptr inbounds nuw i8, ptr %2, i64 88
  %5 = load ptr, ptr %4, align 8, !tbaa !3
  %6 = tail call double @hypot(double noundef %0, double noundef %1) #8, !tbaa !50
  %7 = getelementptr inbounds nuw i8, ptr %5, i64 24
  %8 = load double, ptr %7, align 8, !tbaa !51
  %9 = fdiv double %6, %8
  %10 = tail call double @atan(double noundef %9) #8, !tbaa !50
  %11 = fmul double %10, 2.000000e+00
  %12 = tail call double @sin(double noundef %11) #8, !tbaa !50
  %13 = tail call double @cos(double noundef %11) #8, !tbaa !50
  %14 = getelementptr inbounds nuw i8, ptr %5, i64 32
  %15 = load i32, ptr %14, align 8, !tbaa !46
  switch i32 %15, label %78 [
    i32 3, label %16
    i32 2, label %30
    i32 1, label %60
    i32 0, label %62
  ]

16:                                               ; preds = %3
  %17 = tail call double @llvm.fabs.f64(double %6)
  %18 = fcmp ugt double %17, 1.000000e-10
  br i1 %18, label %19, label %23

19:                                               ; preds = %16
  %20 = fmul double %1, %12
  %21 = fdiv double %20, %6
  %22 = tail call double @asin(double noundef %21) #8, !tbaa !50
  br label %23

23:                                               ; preds = %16, %19
  %.sroa.6.1 = phi double [ %22, %19 ], [ 0.000000e+00, %16 ]
  %24 = fcmp une double %13, 0.000000e+00
  %25 = fcmp une double %0, 0.000000e+00
  %or.cond = or i1 %25, %24
  br i1 %or.cond, label %26, label %78

26:                                               ; preds = %23
  %27 = fmul double %0, %12
  %28 = fmul double %6, %13
  %29 = tail call double @atan2(double noundef %27, double noundef %28) #8, !tbaa !50
  br label %78

30:                                               ; preds = %3
  %31 = tail call double @llvm.fabs.f64(double %6)
  %32 = fcmp ugt double %31, 1.000000e-10
  br i1 %32, label %36, label %33

33:                                               ; preds = %30
  %34 = getelementptr inbounds nuw i8, ptr %2, i64 448
  %35 = load double, ptr %34, align 8, !tbaa !45
  %.phi.trans.insert = getelementptr inbounds nuw i8, ptr %5, i64 8
  %.pre = load double, ptr %.phi.trans.insert, align 8, !tbaa !52
  br label %46

36:                                               ; preds = %30
  %37 = getelementptr inbounds nuw i8, ptr %5, i64 8
  %38 = load double, ptr %37, align 8, !tbaa !52
  %39 = fmul double %1, %12
  %40 = getelementptr inbounds nuw i8, ptr %5, i64 16
  %41 = load double, ptr %40, align 8, !tbaa !53
  %42 = fmul double %39, %41
  %43 = fdiv double %42, %6
  %44 = tail call double @llvm.fmuladd.f64(double %13, double %38, double %43)
  %45 = tail call double @asin(double noundef %44) #8, !tbaa !50
  br label %46

46:                                               ; preds = %36, %33
  %47 = phi double [ %.pre, %33 ], [ %38, %36 ]
  %.sroa.6.2 = phi double [ %35, %33 ], [ %45, %36 ]
  %48 = tail call double @sin(double noundef %.sroa.6.2) #8, !tbaa !50
  %49 = fneg double %47
  %50 = tail call double @llvm.fmuladd.f64(double %49, double %48, double %13)
  %51 = fcmp une double %50, 0.000000e+00
  %52 = fcmp une double %0, 0.000000e+00
  %or.cond5 = or i1 %52, %51
  br i1 %or.cond5, label %53, label %78

53:                                               ; preds = %46
  %54 = fmul double %0, %12
  %55 = getelementptr inbounds nuw i8, ptr %5, i64 16
  %56 = load double, ptr %55, align 8, !tbaa !53
  %57 = fmul double %54, %56
  %58 = fmul double %6, %50
  %59 = tail call double @atan2(double noundef %57, double noundef %58) #8, !tbaa !50
  br label %78

60:                                               ; preds = %3
  %61 = fneg double %1
  br label %62

62:                                               ; preds = %60, %3
  %.sroa.8.0 = phi double [ %1, %3 ], [ %61, %60 ]
  %63 = tail call double @llvm.fabs.f64(double %6)
  %64 = fcmp ugt double %63, 1.000000e-10
  br i1 %64, label %68, label %65

65:                                               ; preds = %62
  %66 = getelementptr inbounds nuw i8, ptr %2, i64 448
  %67 = load double, ptr %66, align 8, !tbaa !45
  br label %73

68:                                               ; preds = %62
  %69 = icmp eq i32 %15, 0
  %70 = fneg double %13
  %71 = select i1 %69, double %70, double %13
  %72 = tail call double @asin(double noundef %71) #8, !tbaa !50
  br label %73

73:                                               ; preds = %68, %65
  %.sroa.6.3 = phi double [ %67, %65 ], [ %72, %68 ]
  %74 = fcmp oeq double %0, 0.000000e+00
  %75 = fcmp oeq double %.sroa.8.0, 0.000000e+00
  %or.cond8 = and i1 %74, %75
  br i1 %or.cond8, label %78, label %76

76:                                               ; preds = %73
  %77 = tail call double @atan2(double noundef %0, double noundef %.sroa.8.0) #8, !tbaa !50
  br label %78

78:                                               ; preds = %76, %73, %53, %46, %26, %23, %3
  %.sroa.6.0 = phi double [ 0.000000e+00, %3 ], [ %.sroa.6.2, %53 ], [ %.sroa.6.2, %46 ], [ %.sroa.6.1, %26 ], [ %.sroa.6.1, %23 ], [ %.sroa.6.3, %73 ], [ %.sroa.6.3, %76 ]
  %.sroa.051.0 = phi double [ 0.000000e+00, %3 ], [ %59, %53 ], [ 0.000000e+00, %46 ], [ %29, %26 ], [ 0.000000e+00, %23 ], [ 0.000000e+00, %73 ], [ %77, %76 ]
  %.fca.0.insert = insertvalue { double, double } poison, double %.sroa.051.0, 0
  %.fca.1.insert = insertvalue { double, double } %.fca.0.insert, double %.sroa.6.0, 1
  ret { double, double } %.fca.1.insert
}